target datalayout = "e-m:e-p270:32:32-p271:32:32-p272:64:64-i64:64-i128:128-f80:128-n8:16:32:64-S128"
target triple = "x86_64-pc-linux-gnu"

; Function Attrs: nounwind uwtable
define internal i32 @join_relfile(ptr noundef %0, i64 noundef %1, ptr noundef %2, ptr noundef %3) #0 {
  %5 = alloca i32, align 4
  %6 = alloca ptr, align 8
  %7 = alloca i64, align 8
  %8 = alloca ptr, align 8
  %9 = alloca ptr, align 8
  %10 = alloca i64, align 8
  %11 = alloca i64, align 8
  %12 = alloca i64, align 8
  %13 = alloca i32, align 4
  %14 = alloca i64, align 8
  store ptr %0, ptr %6, align 8, !tbaa !177
  store i64 %1, ptr %7, align 8, !tbaa !186
  store ptr %2, ptr %8, align 8, !tbaa !177
  store ptr %3, ptr %9, align 8, !tbaa !177
  call void @llvm.lifetime.start.p0(i64 8, ptr %10) #10
  %15 = load ptr, ptr %8, align 8, !tbaa !177
  %16 = call i64 @wcslen(ptr noundef %15) #11
  store i64 %16, ptr %10, align 8, !tbaa !186
  call void @llvm.lifetime.start.p0(i64 8, ptr %11) #10
  %17 = load ptr, ptr %9, align 8, !tbaa !177
  %18 = call i64 @wcslen(ptr noundef %17) #11
  store i64 %18, ptr %11, align 8, !tbaa !186
  call void @llvm.lifetime.start.p0(i64 8, ptr %12) #10
  %19 = load i64, ptr %7, align 8, !tbaa !186
  %20 = sub i64 %19, 1
  store i64 %20, ptr %12, align 8, !tbaa !186
  %21 = load i64, ptr %12, align 8, !tbaa !186
  %22 = icmp ugt i64 %21, 4096
  br i1 %22, label %33, label %23

23:                                               ; preds = %4
  %24 = load i64, ptr %10, align 8, !tbaa !186
  %25 = load i64, ptr %12, align 8, !tbaa !186
  %26 = icmp uge i64 %24, %25
  br i1 %26, label %33, label %27

27:                                               ; preds = %23
  %28 = load i64, ptr %11, align 8, !tbaa !186
  %29 = load i64, ptr %12, align 8, !tbaa !186
  %30 = load i64, ptr %10, align 8, !tbaa !186
  %31 = sub i64 %29, %30
  %32 = icmp uge i64 %28, %31
  br i1 %32, label %33, label %34

33:                                               ; preds = %27, %23, %4
  store i32 -1, ptr %5, align 4
  store i32 1, ptr %13, align 4
  br label %73

34:                                               ; preds = %27
  %35 = load i64, ptr %10, align 8, !tbaa !186
  %36 = icmp eq i64 %35, 0
  br i1 %36, label %37, label %41

37:                                               ; preds = %34
  %38 = load ptr, ptr %6, align 8, !tbaa !177
  %39 = load ptr, ptr %9, align 8, !tbaa !177
  %40 = call ptr @wcscpy(ptr noundef %38, ptr noundef %39) #10
  br label %72

41:                                               ; preds = %34
  %42 = load ptr, ptr %8, align 8, !tbaa !177
  %43 = load ptr, ptr %6, align 8, !tbaa !177
  %44 = icmp ne ptr %42, %43
  br i1 %44, label %45, label %49

45:                                               ; preds = %41
  %46 = load ptr, ptr %6, align 8, !tbaa !177
  %47 = load ptr, ptr %8, align 8, !tbaa !177
  %48 = call ptr @wcscpy(ptr noundef %46, ptr noundef %47) #10
  br label %49

49:                                               ; preds = %45, %41
  call void @llvm.lifetime.start.p0(i64 8, ptr %14) #10
  %50 = load i64, ptr %10, align 8, !tbaa !186
  store i64 %50, ptr %14, align 8, !tbaa !186
  %51 = load i64, ptr %10, align 8, !tbaa !186
  %52 = icmp ugt i64 %51, 1
  br i1 %52, label %53, label %66

53:                                               ; preds = %49
  %54 = load ptr, ptr %8, align 8, !tbaa !177
  %55 = load i64, ptr %10, align 8, !tbaa !186
  %56 = sub i64 %55, 1
  %57 = getelementptr i32, ptr %54, i64 %56
  %58 = load i32, ptr %57, align 4, !tbaa !4
  %59 = icmp ne i32 %58, 47
  br i1 %59, label %60, label %66

60:                                               ; preds = %53
  %61 = load ptr, ptr %6, align 8, !tbaa !177
  %62 = load i64, ptr %10, align 8, !tbaa !186
  %63 = getelementptr i32, ptr %61, i64 %62
  store i32 47, ptr %63, align 4, !tbaa !4
  %64 = load i64, ptr %14, align 8, !tbaa !186
  %65 = add i64 %64, 1
  store i64 %65, ptr %14, align 8, !tbaa !186
  br label %66

66:                                               ; preds = %60, %53, %49
  %67 = load ptr, ptr %6, align 8, !tbaa !177
  %68 = load i64, ptr %14, align 8, !tbaa !186
  %69 = getelementptr i32, ptr %67, i64 %68
  %70 = load ptr, ptr %9, align 8, !tbaa !177
  %71 = call ptr @wcscpy(ptr noundef %69, ptr noundef %70) #10
  call void @llvm.lifetime.end.p0(i64 8, ptr %14) #10
  br label %72

72:                                               ; preds = %66, %37
  store i32 0, ptr %5, align 4
  store i32 1, ptr %13, align 4
  br label %73

73:                                               ; preds = %72, %33
  call void @llvm.lifetime.end.p0(i64 8, ptr %12) #10
  call void @llvm.lifetime.end.p0(i64 8, ptr %11) #10
  call void @llvm.lifetime.end.p0(i64 8, ptr %10) #10
  %74 = load i32, ptr %5, align 4
  ret i32 %74
}

; Function Attrs: nounwind uwtable
define hidden i32 @_Py_add_relfile(ptr noundef %0, ptr noundef %1, i64 noundef %2) #0 {
  %4 = alloca ptr, align 8
  %5 = alloca ptr, align 8
  %6 = alloca i64, align 8
  store ptr %0, ptr %4, align 8, !tbaa !177
  store ptr %1, ptr %5, align 8, !tbaa !177
  store i64 %2, ptr %6, align 8, !tbaa !186
  %7 = load ptr, ptr %4, align 8, !tbaa !177
  %8 = load i64, ptr %6, align 8, !tbaa !186
  %9 = load ptr, ptr %4, align 8, !tbaa !177
  %10 = load ptr, ptr %5, align 8, !tbaa !177
  %11 = call i32 @join_relfile(ptr noundef %7, i64 noundef %8, ptr noundef %9, ptr noundef %10)
  ret i32 %11
}