; Function Attrs: nounwind uwtable
define hidden range(i32 -1, 1) i32 @_Py_add_relfile(ptr noundef %0, ptr noundef %1, i64 noundef %2) local_unnamed_addr #0 {
  %4 = tail call i64 @wcslen(ptr noundef %0) #18
  %5 = tail call i64 @wcslen(ptr noundef %1) #18
  %6 = add i64 %2, -1
  %7 = icmp ult i64 %6, 4097
  %.not.i = icmp ult i64 %4, %6
  %or.cond.i = select i1 %7, i1 %.not.i, i1 false
  %8 = sub nuw nsw i64 %6, %4
  %.not31.i = icmp ult i64 %5, %8
  %or.cond35.i = select i1 %or.cond.i, i1 %.not31.i, i1 false
  br i1 %or.cond35.i, label %9, label %join_relfile.exit

9:                                                ; preds = %3
  switch i64 %4, label %10 [
    i64 0, label %.sink.split.i
    i64 1, label %16
  ]

10:                                               ; preds = %9
  %11 = getelementptr i32, ptr %0, i64 %4
  %12 = getelementptr i8, ptr %11, i64 -4
  %13 = load i32, ptr %12, align 4, !tbaa !180
  %.not34.i = icmp eq i32 %13, 47
  br i1 %.not34.i, label %16, label %14

14:                                               ; preds = %10
  store i32 47, ptr %11, align 4, !tbaa !180
  %15 = add nuw nsw i64 %4, 1
  br label %16

16:                                               ; preds = %9, %14, %10
  %.0.i = phi i64 [ %15, %14 ], [ %4, %10 ], [ %4, %9 ]
  %17 = getelementptr i32, ptr %0, i64 %.0.i
  br label %.sink.split.i

.sink.split.i:                                    ; preds = %9, %16
  %.sink.i = phi ptr [ %17, %16 ], [ %0, %9 ]
  %18 = tail call ptr @wcscpy(ptr noundef %.sink.i, ptr noundef %1) #17
  br label %join_relfile.exit

join_relfile.exit:                                ; preds = %3, %.sink.split.i
  %.026.i = phi i32 [ -1, %3 ], [ 0, %.sink.split.i ]
  ret i32 %.026.i
}